; Function Attrs: nounwind uwtable
define internal ptr @_io_FileIO_readinto(ptr noundef readonly captures(none) %0, ptr noundef readonly captures(none) %1, ptr noundef %2, i64 noundef %3, ptr noundef %4) #1 {
  %6 = alloca [1 x ptr], align 8
  %7 = alloca %struct.Py_buffer, align 8
  call void @llvm.lifetime.start.p0(i64 8, ptr nonnull %6) #10
  call void @llvm.lifetime.start.p0(i64 80, ptr nonnull %7) #10
  call void @llvm.memset.p0.i64(ptr noundef nonnull align 8 dereferenceable(80) %7, i8 0, i64 80, i1 false)
  %8 = icmp eq ptr %4, null
  %9 = icmp eq i64 %3, 1
  %or.cond3 = and i1 %9, %8
  %10 = icmp ne ptr %2, null
  %or.cond5 = and i1 %10, %or.cond3
  br i1 %or.cond5, label %.thread, label %11

11:                                               ; preds = %5
  %12 = call ptr @_PyArg_UnpackKeywords(ptr noundef %2, i64 noundef %3, ptr noundef null, ptr noundef %4, ptr noundef nonnull @_io_FileIO_readinto._parser, i32 noundef 1, i32 noundef 1, i32 noundef 0, i32 noundef 0, ptr noundef nonnull %6) #10
  %.not = icmp eq ptr %12, null
  br i1 %.not, label %_io_FileIO_readinto_impl.exit, label %.thread

.thread:                                          ; preds = %5, %11
  %13 = phi ptr [ %12, %11 ], [ %2, %5 ]
  %14 = load ptr, ptr %13, align 8, !tbaa !21
  %15 = call i32 @PyObject_GetBuffer(ptr noundef %14, ptr noundef nonnull %7, i32 noundef 1) #10
  %16 = icmp slt i32 %15, 0
  br i1 %16, label %17, label %19

17:                                               ; preds = %.thread
  %18 = load ptr, ptr %13, align 8, !tbaa !21
  call void @_PyArg_BadArgument(ptr noundef nonnull @.str.17, ptr noundef nonnull @.str.38, ptr noundef nonnull @.str.39, ptr noundef %18) #10
  br label %_io_FileIO_readinto_impl.exit

19:                                               ; preds = %.thread
  %.val = load ptr, ptr %7, align 8
  %20 = getelementptr inbounds nuw i8, ptr %7, i64 16
  %.val21 = load i64, ptr %20, align 8
  %21 = getelementptr inbounds nuw i8, ptr %0, i64 16
  %22 = load i32, ptr %21, align 8, !tbaa !4
  %23 = icmp slt i32 %22, 0
  br i1 %23, label %24, label %26

24:                                               ; preds = %19
  %25 = load ptr, ptr @PyExc_ValueError, align 8, !tbaa !21
  call void @PyErr_SetString(ptr noundef %25, ptr noundef nonnull @.str.35) #10
  br label %_io_FileIO_readinto_impl.exit

26:                                               ; preds = %19
  %27 = getelementptr inbounds nuw i8, ptr %0, i64 20
  %28 = load i8, ptr %27, align 4
  %29 = and i8 %28, 2
  %.not.i = icmp eq i8 %29, 0
  br i1 %.not.i, label %30, label %35

30:                                               ; preds = %26
  %31 = getelementptr i8, ptr %1, i64 888
  %.val.i = load ptr, ptr %31, align 8, !tbaa !49
  %32 = getelementptr i8, ptr %.val.i, i64 32
  %.val.val.i = load ptr, ptr %32, align 8, !tbaa !57
  %33 = getelementptr i8, ptr %.val.val.i, i64 8
  %.val12.i = load ptr, ptr %33, align 8, !tbaa !60
  %34 = call ptr (ptr, ptr, ...) @PyErr_Format(ptr noundef %.val12.i, ptr noundef nonnull @.str.36, ptr noundef nonnull @.str.34) #10
  br label %_io_FileIO_readinto_impl.exit

35:                                               ; preds = %26
  %36 = call i64 @_Py_read(i32 noundef %22, ptr noundef %.val, i64 noundef %.val21) #10
  %37 = icmp eq i64 %36, -1
  br i1 %37, label %38, label %43

38:                                               ; preds = %35
  %39 = tail call ptr @__errno_location() #12
  %40 = load i32, ptr %39, align 4, !tbaa !43
  %41 = icmp eq i32 %40, 11
  br i1 %41, label %42, label %_io_FileIO_readinto_impl.exit

42:                                               ; preds = %38
  call void @PyErr_Clear() #10
  br label %_io_FileIO_readinto_impl.exit

43:                                               ; preds = %35
  %44 = call ptr @PyLong_FromSsize_t(i64 noundef %36) #10
  br label %_io_FileIO_readinto_impl.exit

_io_FileIO_readinto_impl.exit:                    ; preds = %43, %42, %38, %30, %24, %11, %17
  %.0 = phi ptr [ null, %17 ], [ null, %11 ], [ null, %24 ], [ @_Py_NoneStruct, %42 ], [ %44, %43 ], [ %34, %30 ], [ null, %38 ]
  %45 = getelementptr inbounds nuw i8, ptr %7, i64 8
  %46 = load ptr, ptr %45, align 8, !tbaa !62
  %.not20 = icmp eq ptr %46, null
  br i1 %.not20, label %48, label %47

47:                                               ; preds = %_io_FileIO_readinto_impl.exit
  call void @PyBuffer_Release(ptr noundef nonnull %7) #10
  br label %48

48:                                               ; preds = %47, %_io_FileIO_readinto_impl.exit
  call void @llvm.lifetime.end.p0(i64 80, ptr nonnull %7) #10
  call void @llvm.lifetime.end.p0(i64 8, ptr nonnull %6) #10
  ret ptr %.0
}